; Function Attrs: mustprogress uwtable
define internal noundef zeroext i1 @_ZNK7rocksdb12_GLOBAL__N_125LegacyRandomRWFileWrapper13use_direct_ioEv(ptr noundef nonnull readonly align 8 captures(none) dereferenceable(16) %0) unnamed_addr #4 align 2 {
  %2 = getelementptr inbounds nuw i8, ptr %0, i64 8
  %3 = load ptr, ptr %2, align 8, !tbaa !485
  %4 = load ptr, ptr %3, align 8, !tbaa !18
  %5 = getelementptr inbounds nuw i8, ptr %4, i64 16
  %6 = load ptr, ptr %5, align 8
  %7 = tail call noundef zeroext i1 %6(ptr noundef nonnull align 8 dereferenceable(8) %3)
  ret i1 %7
}